#include <math.h>
#include <stdio.h>
#include <stdlib.h>
#include <string.h>
#include <iostream>
using namespace std;

//********************************
//*????                **
//*?????? 1200012784 **
//*???2012.12.4         **
//********************************

void move(int *, int, int);                      //????????????????move

int main()
{	
	int n, m, num[100];                          //??????n?????m???num
	cin >> n >> m;                               //??
	for (int i = 0; i < n; i++)
		cin >> num[i];
	move(num, n, m);                             //??????
	cout << num[0];                              //??
	for (int i = 1; i < n; i++)
		cout << ' ' << num[i];
	return 0;
}

void move(int *num, int n, int m)                //?????????
{
	int i = 0;                                   //i??????num??i?????num[0]??
	int key = *(num + i);                        //???????????
	while (i != m)                               //???????????i?????????
	{
		if (i < m)                               //?????m?
		{
			*(num + i) = *(num + i + n - m);     //????i + n + m??
			i = i + n - m;                       //??????????i + n + m??
		}
		else                                     //??????
		{
			*(num + i) = *(num + i - m);         //????i - m??
			i = i - m;                           //???????i - m??
		}
	}
	*(num + i) = key;                            //??i?????m?????????????num[0]???num[m]
}